target datalayout = "e-m:e-p270:32:32-p271:32:32-p272:64:64-i64:64-i128:128-f80:128-n8:16:32:64-S128"
target triple = "x86_64-pc-linux-gnu"

%struct.jv = type { i8, i8, i16, i32, %union.anon }
%union.anon = type { ptr }
%struct.sort_entry = type { %struct.jv, %struct.jv, i32 }

; Function Attrs: nounwind uwtable
define dso_local { i64, ptr } @jv_sort(i64 %0, ptr %1, i64 %2, ptr %3) #0 {
  %5 = alloca %struct.jv, align 8
  %6 = alloca %struct.jv, align 8
  %7 = alloca %struct.jv, align 8
  %8 = alloca i32, align 4
  %9 = alloca %struct.jv, align 8
  %10 = alloca ptr, align 8
  %11 = alloca i32, align 4
  %12 = alloca %struct.jv, align 8
  %13 = getelementptr inbounds nuw { i64, ptr }, ptr %6, i32 0, i32 0
  store i64 %0, ptr %13, align 8
  %14 = getelementptr inbounds nuw { i64, ptr }, ptr %6, i32 0, i32 1
  store ptr %1, ptr %14, align 8
  %15 = getelementptr inbounds nuw { i64, ptr }, ptr %7, i32 0, i32 0
  store i64 %2, ptr %15, align 8
  %16 = getelementptr inbounds nuw { i64, ptr }, ptr %7, i32 0, i32 1
  store ptr %3, ptr %16, align 8
  call void @llvm.lifetime.start.p0(i64 4, ptr %8) #6
  %17 = getelementptr inbounds nuw { i64, ptr }, ptr %6, i32 0, i32 0
  %18 = load i64, ptr %17, align 8
  %19 = getelementptr inbounds nuw { i64, ptr }, ptr %6, i32 0, i32 1
  %20 = load ptr, ptr %19, align 8
  %21 = call { i64, ptr } @jv_copy(i64 %18, ptr %20)
  %22 = getelementptr inbounds nuw { i64, ptr }, ptr %9, i32 0, i32 0
  %23 = extractvalue { i64, ptr } %21, 0
  store i64 %23, ptr %22, align 8
  %24 = getelementptr inbounds nuw { i64, ptr }, ptr %9, i32 0, i32 1
  %25 = extractvalue { i64, ptr } %21, 1
  store ptr %25, ptr %24, align 8
  %26 = getelementptr inbounds nuw { i64, ptr }, ptr %9, i32 0, i32 0
  %27 = load i64, ptr %26, align 8
  %28 = getelementptr inbounds nuw { i64, ptr }, ptr %9, i32 0, i32 1
  %29 = load ptr, ptr %28, align 8
  %30 = call i32 @jv_array_length(i64 %27, ptr %29)
  store i32 %30, ptr %8, align 4, !tbaa !10
  call void @llvm.lifetime.start.p0(i64 8, ptr %10) #6
  %31 = getelementptr inbounds nuw { i64, ptr }, ptr %6, i32 0, i32 0
  %32 = load i64, ptr %31, align 8
  %33 = getelementptr inbounds nuw { i64, ptr }, ptr %6, i32 0, i32 1
  %34 = load ptr, ptr %33, align 8
  %35 = getelementptr inbounds nuw { i64, ptr }, ptr %7, i32 0, i32 0
  %36 = load i64, ptr %35, align 8
  %37 = getelementptr inbounds nuw { i64, ptr }, ptr %7, i32 0, i32 1
  %38 = load ptr, ptr %37, align 8
  %39 = call ptr @sort_items(i64 %32, ptr %34, i64 %36, ptr %38)
  store ptr %39, ptr %10, align 8, !tbaa !23
  %40 = call { i64, ptr } @jv_array()
  %41 = getelementptr inbounds nuw { i64, ptr }, ptr %5, i32 0, i32 0
  %42 = extractvalue { i64, ptr } %40, 0
  store i64 %42, ptr %41, align 8
  %43 = getelementptr inbounds nuw { i64, ptr }, ptr %5, i32 0, i32 1
  %44 = extractvalue { i64, ptr } %40, 1
  store ptr %44, ptr %43, align 8
  call void @llvm.lifetime.start.p0(i64 4, ptr %11) #6
  store i32 0, ptr %11, align 4, !tbaa !10
  br label %45

45:                                               ; preds = %79, %4
  %46 = load i32, ptr %11, align 4, !tbaa !10
  %47 = load i32, ptr %8, align 4, !tbaa !10
  %48 = icmp slt i32 %46, %47
  br i1 %48, label %50, label %49

49:                                               ; preds = %45
  call void @llvm.lifetime.end.p0(i64 4, ptr %11) #6
  br label %82

50:                                               ; preds = %45
  %51 = load ptr, ptr %10, align 8, !tbaa !23
  %52 = load i32, ptr %11, align 4, !tbaa !10
  %53 = sext i32 %52 to i64
  %54 = getelementptr inbounds %struct.sort_entry, ptr %51, i64 %53
  %55 = getelementptr inbounds nuw %struct.sort_entry, ptr %54, i32 0, i32 1
  %56 = getelementptr inbounds nuw { i64, ptr }, ptr %55, i32 0, i32 0
  %57 = load i64, ptr %56, align 8
  %58 = getelementptr inbounds nuw { i64, ptr }, ptr %55, i32 0, i32 1
  %59 = load ptr, ptr %58, align 8
  call void @jv_free(i64 %57, ptr %59)
  call void @llvm.lifetime.start.p0(i64 16, ptr %12) #6
  %60 = load i32, ptr %11, align 4, !tbaa !10
  %61 = load ptr, ptr %10, align 8, !tbaa !23
  %62 = load i32, ptr %11, align 4, !tbaa !10
  %63 = sext i32 %62 to i64
  %64 = getelementptr inbounds %struct.sort_entry, ptr %61, i64 %63
  %65 = getelementptr inbounds nuw %struct.sort_entry, ptr %64, i32 0, i32 0
  %66 = getelementptr inbounds nuw { i64, ptr }, ptr %5, i32 0, i32 0
  %67 = load i64, ptr %66, align 8
  %68 = getelementptr inbounds nuw { i64, ptr }, ptr %5, i32 0, i32 1
  %69 = load ptr, ptr %68, align 8
  %70 = getelementptr inbounds nuw { i64, ptr }, ptr %65, i32 0, i32 0
  %71 = load i64, ptr %70, align 8
  %72 = getelementptr inbounds nuw { i64, ptr }, ptr %65, i32 0, i32 1
  %73 = load ptr, ptr %72, align 8
  %74 = call { i64, ptr } @jv_array_set(i64 %67, ptr %69, i32 noundef %60, i64 %71, ptr %73)
  %75 = getelementptr inbounds nuw { i64, ptr }, ptr %12, i32 0, i32 0
  %76 = extractvalue { i64, ptr } %74, 0
  store i64 %76, ptr %75, align 8
  %77 = getelementptr inbounds nuw { i64, ptr }, ptr %12, i32 0, i32 1
  %78 = extractvalue { i64, ptr } %74, 1
  store ptr %78, ptr %77, align 8
  call void @llvm.memcpy.p0.p0.i64(ptr align 8 %5, ptr align 8 %12, i64 16, i1 false), !tbaa.struct !4
  call void @llvm.lifetime.end.p0(i64 16, ptr %12) #6
  br label %79

79:                                               ; preds = %50
  %80 = load i32, ptr %11, align 4, !tbaa !10
  %81 = add nsw i32 %80, 1
  store i32 %81, ptr %11, align 4, !tbaa !10
  br label %45, !llvm.loop !25

82:                                               ; preds = %49
  %83 = load ptr, ptr %10, align 8, !tbaa !23
  call void @jv_mem_free(ptr noundef %83)
  call void @llvm.lifetime.end.p0(i64 8, ptr %10) #6
  call void @llvm.lifetime.end.p0(i64 4, ptr %8) #6
  %84 = load { i64, ptr }, ptr %5, align 8
  ret { i64, ptr } %84
}