; Function Attrs: nounwind uwtable
define dso_local { i64, ptr } @jv_sort(i64 %0, ptr %1, i64 %2, ptr %3) local_unnamed_addr #0 {
  %5 = tail call { i64, ptr } @jv_copy(i64 %0, ptr %1) #6
  %6 = extractvalue { i64, ptr } %5, 0
  %7 = extractvalue { i64, ptr } %5, 1
  %8 = tail call i32 @jv_array_length(i64 %6, ptr %7) #6
  %9 = tail call fastcc ptr @sort_items(i64 %0, ptr %1, i64 %2, ptr %3)
  %10 = tail call { i64, ptr } @jv_array() #6
  %11 = icmp sgt i32 %8, 0
  br i1 %11, label %.lr.ph.preheader, label %._crit_edge

.lr.ph.preheader:                                 ; preds = %4
  %wide.trip.count = zext nneg i32 %8 to i64
  br label %.lr.ph

._crit_edge:                                      ; preds = %.lr.ph, %4
  %.pn.lcssa = phi { i64, ptr } [ %10, %4 ], [ %21, %.lr.ph ]
  tail call void @jv_mem_free(ptr noundef %9) #6
  ret { i64, ptr } %.pn.lcssa

.lr.ph:                                           ; preds = %.lr.ph.preheader, %.lr.ph
  %indvars.iv = phi i64 [ 0, %.lr.ph.preheader ], [ %indvars.iv.next, %.lr.ph ]
  %.pn19 = phi { i64, ptr } [ %10, %.lr.ph.preheader ], [ %21, %.lr.ph ]
  %.sroa.416.0 = extractvalue { i64, ptr } %.pn19, 1
  %.sroa.014.0 = extractvalue { i64, ptr } %.pn19, 0
  %12 = getelementptr inbounds nuw %struct.sort_entry, ptr %9, i64 %indvars.iv
  %13 = getelementptr inbounds nuw i8, ptr %12, i64 16
  %14 = load i64, ptr %13, align 8
  %15 = getelementptr inbounds nuw i8, ptr %12, i64 24
  %16 = load ptr, ptr %15, align 8
  tail call void @jv_free(i64 %14, ptr %16) #6
  %17 = load i64, ptr %12, align 8
  %18 = getelementptr inbounds nuw i8, ptr %12, i64 8
  %19 = load ptr, ptr %18, align 8
  %20 = trunc nuw nsw i64 %indvars.iv to i32
  %21 = tail call { i64, ptr } @jv_array_set(i64 %.sroa.014.0, ptr %.sroa.416.0, i32 noundef %20, i64 %17, ptr %19) #6
  %indvars.iv.next = add nuw nsw i64 %indvars.iv, 1
  %exitcond.not = icmp eq i64 %indvars.iv.next, %wide.trip.count
  br i1 %exitcond.not, label %._crit_edge, label %.lr.ph, !llvm.loop !13
}